; Function Attrs: mustprogress nofree norecurse nosync nounwind willreturn memory(argmem: read) uwtable
define noundef zeroext i1 @_ZNK5arrow7compute11CastOptions9is_unsafeEv(ptr nocapture noundef nonnull readonly align 8 dereferenceable(46) %this) local_unnamed_addr #6 align 2 {
entry:
  %allow_int_overflow = getelementptr inbounds i8, ptr %this, i64 40
  %0 = load i8, ptr %allow_int_overflow, align 8
  %1 = and i8 %0, 1
  %tobool.not = icmp eq i8 %1, 0
  br i1 %tobool.not, label %land.end, label %land.lhs.true

land.lhs.true:                                    ; preds = %entry
  %allow_time_truncate = getelementptr inbounds i8, ptr %this, i64 41
  %2 = load i8, ptr %allow_time_truncate, align 1
  %3 = and i8 %2, 1
  %tobool2.not = icmp eq i8 %3, 0
  br i1 %tobool2.not, label %land.end, label %land.lhs.true3

land.lhs.true3:                                   ; preds = %land.lhs.true
  %allow_time_overflow = getelementptr inbounds i8, ptr %this, i64 42
  %4 = load i8, ptr %allow_time_overflow, align 2
  %5 = and i8 %4, 1
  %tobool4.not = icmp eq i8 %5, 0
  br i1 %tobool4.not, label %land.end, label %land.lhs.true5

land.lhs.true5:                                   ; preds = %land.lhs.true3
  %allow_decimal_truncate = getelementptr inbounds i8, ptr %this, i64 43
  %6 = load i8, ptr %allow_decimal_truncate, align 1
  %7 = and i8 %6, 1
  %tobool6.not = icmp eq i8 %7, 0
  br i1 %tobool6.not, label %land.end, label %land.lhs.true7

land.lhs.true7:                                   ; preds = %land.lhs.true5
  %allow_float_truncate = getelementptr inbounds i8, ptr %this, i64 44
  %8 = load i8, ptr %allow_float_truncate, align 4
  %9 = and i8 %8, 1
  %tobool8.not = icmp eq i8 %9, 0
  br i1 %tobool8.not, label %land.end, label %land.rhs

land.rhs:                                         ; preds = %land.lhs.true7
  %allow_invalid_utf8 = getelementptr inbounds i8, ptr %this, i64 45
  %10 = load i8, ptr %allow_invalid_utf8, align 1
  %11 = and i8 %10, 1
  %tobool9 = icmp ne i8 %11, 0
  br label %land.end

land.end:                                         ; preds = %land.rhs, %land.lhs.true7, %land.lhs.true5, %land.lhs.true3, %land.lhs.true, %entry
  %12 = phi i1 [ false, %land.lhs.true7 ], [ false, %land.lhs.true5 ], [ false, %land.lhs.true3 ], [ false, %land.lhs.true ], [ false, %entry ], [ %tobool9, %land.rhs ]
  ret i1 %12
}